target datalayout = "e-m:e-p270:32:32-p271:32:32-p272:64:64-i64:64-i128:128-f80:128-n8:16:32:64-S128"
target triple = "x86_64-pc-linux-gnu"

%struct._address = type { i32, i32, ptr, ptr }
%struct.ieee1905_fragment_key = type { %struct._address, %struct._address, i32, i8 }

; Function Attrs: alwaysinline nounwind
define internal ptr @memcpy.inline(ptr noalias %0, ptr noalias %1, i64 %2) #5 {
  %4 = alloca ptr, align 8
  %5 = alloca ptr, align 8
  %6 = alloca i64, align 8
  store ptr %0, ptr %4, align 8
  store ptr %1, ptr %5, align 8
  store i64 %2, ptr %6, align 8
  %7 = load ptr, ptr %4, align 8
  %8 = load ptr, ptr %5, align 8
  %9 = load i64, ptr %6, align 8
  %10 = load ptr, ptr %4, align 8
  %11 = call i64 @llvm.objectsize.i64.p0(ptr %10, i1 false, i1 true, i1 true)
  %12 = call ptr @__memcpy_chk(ptr noundef %7, ptr noundef %8, i64 noundef %9, i64 noundef %11) #12
  ret ptr %12
}

; Function Attrs: null_pointer_is_valid sspstrong uwtable
define internal i32 @ieee1905_fragment_hash(ptr noundef %0) #0 {
  %2 = alloca i32, align 4
  %3 = alloca ptr, align 8
  %4 = alloca i32, align 4
  %5 = alloca ptr, align 8
  %6 = alloca i32, align 4
  %7 = alloca i8, align 1
  %8 = alloca i8, align 1
  %9 = alloca i8, align 1
  %10 = alloca ptr, align 8
  store ptr %0, ptr %3, align 8
  call void @llvm.lifetime.start.p0(i64 4, ptr %4) #12
  call void @llvm.lifetime.start.p0(i64 8, ptr %5) #12
  %11 = load ptr, ptr %3, align 8
  store ptr %11, ptr %5, align 8
  %12 = load ptr, ptr %5, align 8
  %13 = icmp ne ptr %12, null
  br i1 %13, label %14, label %26

14:                                               ; preds = %1
  %15 = load ptr, ptr %5, align 8
  %16 = getelementptr inbounds nuw %struct.ieee1905_fragment_key, ptr %15, i32 0, i32 0
  %17 = getelementptr inbounds nuw %struct._address, ptr %16, i32 0, i32 2
  %18 = load ptr, ptr %17, align 8
  %19 = icmp ne ptr %18, null
  br i1 %19, label %20, label %26

20:                                               ; preds = %14
  %21 = load ptr, ptr %5, align 8
  %22 = getelementptr inbounds nuw %struct.ieee1905_fragment_key, ptr %21, i32 0, i32 1
  %23 = getelementptr inbounds nuw %struct._address, ptr %22, i32 0, i32 2
  %24 = load ptr, ptr %23, align 8
  %25 = icmp ne ptr %24, null
  br i1 %25, label %27, label %26

26:                                               ; preds = %20, %14, %1
  store i32 0, ptr %2, align 4
  store i32 1, ptr %6, align 4
  br label %98

27:                                               ; preds = %20
  call void @llvm.lifetime.start.p0(i64 1, ptr %7) #12
  %28 = load ptr, ptr %5, align 8
  %29 = getelementptr inbounds nuw %struct.ieee1905_fragment_key, ptr %28, i32 0, i32 0
  %30 = getelementptr inbounds nuw %struct._address, ptr %29, i32 0, i32 1
  %31 = load i32, ptr %30, align 4
  %32 = trunc i32 %31 to i8
  store i8 %32, ptr %7, align 1
  call void @llvm.lifetime.start.p0(i64 1, ptr %8) #12
  %33 = load ptr, ptr %5, align 8
  %34 = getelementptr inbounds nuw %struct.ieee1905_fragment_key, ptr %33, i32 0, i32 1
  %35 = getelementptr inbounds nuw %struct._address, ptr %34, i32 0, i32 1
  %36 = load i32, ptr %35, align 4
  %37 = trunc i32 %36 to i8
  store i8 %37, ptr %8, align 1
  call void @llvm.lifetime.start.p0(i64 1, ptr %9) #12
  %38 = load i8, ptr %7, align 1
  %39 = zext i8 %38 to i32
  %40 = load i8, ptr %8, align 1
  %41 = zext i8 %40 to i32
  %42 = add i32 %39, %41
  %43 = sext i32 %42 to i64
  %44 = add i64 %43, 1
  %45 = add i64 %44, 4
  %46 = trunc i64 %45 to i8
  store i8 %46, ptr %9, align 1
  call void @llvm.lifetime.start.p0(i64 8, ptr %10) #12
  %47 = call ptr @wmem_packet_scope()
  %48 = load i8, ptr %9, align 1
  %49 = zext i8 %48 to i64
  %50 = call noalias ptr @wmem_alloc(ptr noundef %47, i64 noundef %49) #13
  store ptr %50, ptr %10, align 8
  %51 = load ptr, ptr %10, align 8
  %52 = load ptr, ptr %5, align 8
  %53 = getelementptr inbounds nuw %struct.ieee1905_fragment_key, ptr %52, i32 0, i32 0
  %54 = getelementptr inbounds nuw %struct._address, ptr %53, i32 0, i32 2
  %55 = load ptr, ptr %54, align 8
  %56 = load i8, ptr %7, align 1
  %57 = zext i8 %56 to i64
  %58 = call ptr @memcpy.inline(ptr noundef %51, ptr noundef %55, i64 noundef %57) #12
  %59 = load ptr, ptr %10, align 8
  %60 = load i8, ptr %7, align 1
  %61 = zext i8 %60 to i64
  %62 = getelementptr i8, ptr %59, i64 %61
  %63 = load ptr, ptr %5, align 8
  %64 = getelementptr inbounds nuw %struct.ieee1905_fragment_key, ptr %63, i32 0, i32 1
  %65 = getelementptr inbounds nuw %struct._address, ptr %64, i32 0, i32 2
  %66 = load ptr, ptr %65, align 8
  %67 = load i8, ptr %8, align 1
  %68 = zext i8 %67 to i64
  %69 = call ptr @memcpy.inline(ptr noundef %62, ptr noundef %66, i64 noundef %68) #12
  %70 = load ptr, ptr %5, align 8
  %71 = getelementptr inbounds nuw %struct.ieee1905_fragment_key, ptr %70, i32 0, i32 3
  %72 = load i8, ptr %71, align 4
  %73 = load ptr, ptr %10, align 8
  %74 = load i8, ptr %7, align 1
  %75 = zext i8 %74 to i32
  %76 = load i8, ptr %8, align 1
  %77 = zext i8 %76 to i32
  %78 = add i32 %75, %77
  %79 = sext i32 %78 to i64
  %80 = getelementptr i8, ptr %73, i64 %79
  store i8 %72, ptr %80, align 1
  %81 = load ptr, ptr %10, align 8
  %82 = load i8, ptr %7, align 1
  %83 = zext i8 %82 to i32
  %84 = load i8, ptr %8, align 1
  %85 = zext i8 %84 to i32
  %86 = add i32 %83, %85
  %87 = sext i32 %86 to i64
  %88 = add i64 %87, 1
  %89 = getelementptr i8, ptr %81, i64 %88
  %90 = load ptr, ptr %5, align 8
  %91 = getelementptr inbounds nuw %struct.ieee1905_fragment_key, ptr %90, i32 0, i32 2
  %92 = call ptr @memcpy.inline(ptr noundef %89, ptr noundef %91, i64 noundef 4) #12
  %93 = load ptr, ptr %10, align 8
  %94 = load i8, ptr %9, align 1
  %95 = zext i8 %94 to i64
  %96 = call i32 @wmem_strong_hash(ptr noundef %93, i64 noundef %95)
  store i32 %96, ptr %4, align 4
  %97 = load i32, ptr %4, align 4
  store i32 %97, ptr %2, align 4
  store i32 1, ptr %6, align 4
  call void @llvm.lifetime.end.p0(i64 8, ptr %10) #12
  call void @llvm.lifetime.end.p0(i64 1, ptr %9) #12
  call void @llvm.lifetime.end.p0(i64 1, ptr %8) #12
  call void @llvm.lifetime.end.p0(i64 1, ptr %7) #12
  br label %98

98:                                               ; preds = %27, %26
  call void @llvm.lifetime.end.p0(i64 8, ptr %5) #12
  call void @llvm.lifetime.end.p0(i64 4, ptr %4) #12
  %99 = load i32, ptr %2, align 4
  ret i32 %99
}