; Function Attrs: null_pointer_is_valid sspstrong uwtable
define internal i32 @ieee1905_fragment_hash(ptr noundef readonly captures(address_is_null) %0) #0 {
  %.not = icmp eq ptr %0, null
  br i1 %.not, label %41, label %2

2:                                                ; preds = %1
  %3 = getelementptr inbounds nuw i8, ptr %0, i64 8
  %4 = load ptr, ptr %3, align 8
  %.not28 = icmp eq ptr %4, null
  br i1 %.not28, label %41, label %5

5:                                                ; preds = %2
  %6 = getelementptr inbounds nuw i8, ptr %0, i64 32
  %7 = load ptr, ptr %6, align 8
  %.not29 = icmp eq ptr %7, null
  br i1 %.not29, label %41, label %8

8:                                                ; preds = %5
  %9 = getelementptr inbounds nuw i8, ptr %0, i64 4
  %10 = load i32, ptr %9, align 4
  %11 = getelementptr inbounds nuw i8, ptr %0, i64 28
  %12 = load i32, ptr %11, align 4
  %13 = and i32 %10, 255
  %14 = and i32 %12, 255
  %15 = add nuw nsw i32 %14, %13
  %16 = zext nneg i32 %15 to i64
  %narrow = add nuw nsw i32 %15, 5
  %17 = tail call ptr @wmem_packet_scope()
  %18 = and i32 %narrow, 255
  %19 = zext nneg i32 %18 to i64
  %20 = tail call noalias ptr @wmem_alloc(ptr noundef %17, i64 noundef %19) #14
  %21 = load ptr, ptr %3, align 8
  %22 = zext nneg i32 %13 to i64
  %23 = tail call ptr @__memcpy_chk(ptr noundef %20, ptr noundef %21, i64 noundef range(i64 0, 256) %22, i64 noundef %19) #15, !alias.scope !8
  %24 = getelementptr i8, ptr %20, i64 %22
  %25 = load ptr, ptr %6, align 8
  %26 = zext nneg i32 %14 to i64
  %27 = sub nsw i64 %19, %22
  %28 = icmp samesign ugt i32 %13, %18
  %29 = select i1 %28, i64 0, i64 %27
  %30 = icmp ne i64 %29, -1
  tail call void @llvm.assume(i1 %30)
  %31 = tail call ptr @__memcpy_chk(ptr noundef %24, ptr noundef %25, i64 noundef range(i64 0, 256) %26, i64 noundef %29) #15, !alias.scope !12
  %32 = getelementptr inbounds nuw i8, ptr %0, i64 52
  %33 = load i8, ptr %32, align 4
  %34 = getelementptr i8, ptr %20, i64 %16
  store i8 %33, ptr %34, align 1
  %35 = add nuw nsw i64 %16, 1
  %36 = getelementptr i8, ptr %34, i64 1
  %37 = getelementptr inbounds nuw i8, ptr %0, i64 48
  %38 = tail call i64 @llvm.usub.sat.i64(i64 %19, i64 %35)
  %39 = tail call ptr @__memcpy_chk(ptr noundef %36, ptr noundef nonnull %37, i64 noundef 4, i64 noundef %38) #15, !alias.scope !16
  %40 = tail call i32 @wmem_strong_hash(ptr noundef %20, i64 noundef %19)
  br label %41

41:                                               ; preds = %1, %2, %5, %8
  %.0 = phi i32 [ %40, %8 ], [ 0, %5 ], [ 0, %2 ], [ 0, %1 ]
  ret i32 %.0
}